; Function Attrs: mustprogress uwtable
define hidden noundef zeroext i1 @_ZNK4cvc58internal6theory11TheoryState8areEqualENS0_12NodeTemplateILb0EEES4_(ptr noundef nonnull align 8 dereferenceable(160) %0, ptr noundef readonly captures(none) %1, ptr noundef readonly captures(none) %2) unnamed_addr #3 align 2 personality ptr @__gxx_personality_v0 {
  %4 = alloca %"class.cvc5::internal::NodeTemplate", align 8
  %5 = alloca %"class.cvc5::internal::NodeTemplate", align 8
  %6 = alloca %"class.cvc5::internal::NodeTemplate", align 8
  %7 = alloca %"class.cvc5::internal::NodeTemplate", align 8
  %8 = load ptr, ptr %1, align 8, !tbaa !45
  %9 = load ptr, ptr %2, align 8, !tbaa !45
  %10 = icmp eq ptr %8, %9
  br i1 %10, label %.thread12, label %11

11:                                               ; preds = %3
  store ptr %8, ptr %4, align 8, !tbaa !45
  %12 = load ptr, ptr %0, align 8, !tbaa !3
  %13 = getelementptr inbounds nuw i8, ptr %12, i64 16
  %14 = load ptr, ptr %13, align 8
  %15 = call noundef zeroext i1 %14(ptr noundef nonnull align 8 dereferenceable(160) %0, ptr noundef nonnull %4)
  br i1 %15, label %16, label %.thread12

16:                                               ; preds = %11
  %17 = load ptr, ptr %2, align 8, !tbaa !45
  store ptr %17, ptr %5, align 8, !tbaa !45
  %18 = load ptr, ptr %0, align 8, !tbaa !3
  %19 = getelementptr inbounds nuw i8, ptr %18, i64 16
  %20 = load ptr, ptr %19, align 8
  %21 = call noundef zeroext i1 %20(ptr noundef nonnull align 8 dereferenceable(160) %0, ptr noundef nonnull %5)
  br i1 %21, label %22, label %.thread12

22:                                               ; preds = %16
  %23 = getelementptr inbounds nuw i8, ptr %0, i64 24
  %24 = load ptr, ptr %23, align 8, !tbaa !10
  %25 = load ptr, ptr %1, align 8, !tbaa !45
  store ptr %25, ptr %6, align 8, !tbaa !45
  %26 = load ptr, ptr %2, align 8, !tbaa !45
  store ptr %26, ptr %7, align 8, !tbaa !45
  %27 = call noundef zeroext i1 @_ZNK4cvc58internal6theory2eq14EqualityEngine8areEqualENS0_12NodeTemplateILb0EEES5_(ptr noundef nonnull align 8 dereferenceable(1784) %24, ptr noundef nonnull %6, ptr noundef nonnull %7)
  br label %.thread12

.thread12:                                        ; preds = %22, %11, %16, %3
  %.08 = phi i1 [ true, %3 ], [ false, %16 ], [ %27, %22 ], [ false, %11 ]
  ret i1 %.08
}